target datalayout = "e-m:e-p270:32:32-p271:32:32-p272:64:64-i64:64-i128:128-f80:128-n8:16:32:64-S128"
target triple = "x86_64-pc-linux-gnu"

%struct.URLContext = type { ptr, ptr, ptr, ptr, i32, i32, i32, i32, %struct.AVIOInterruptCB, i64, ptr, ptr, i32 }
%struct.AVIOInterruptCB = type { ptr, ptr }
%struct.UDPContext = type { ptr, i32, i32, i32, i32, i32, i32, i32, i32, i32, i32, %struct.sockaddr_storage, i32, i32, i32, ptr, i32, i64, i64, i32, i64, %union.pthread_mutex_t, %union.pthread_cond_t, i32, [65540 x i8], i32, ptr, i32, %struct.sockaddr_storage, ptr, ptr, %struct.IPSourceFilters }
%union.pthread_mutex_t = type { %struct.__pthread_mutex_s }
%struct.__pthread_mutex_s = type { i32, i32, i32, i32, i32, i16, i16, %struct.__pthread_internal_list }
%struct.__pthread_internal_list = type { ptr, ptr }
%union.pthread_cond_t = type { %struct.__pthread_cond_s }
%struct.__pthread_cond_s = type { %union.__atomic_wide_counter, %union.__atomic_wide_counter, [2 x i32], [2 x i32], i32, i32, [2 x i32] }
%union.__atomic_wide_counter = type { i64 }
%struct.sockaddr_storage = type { i16, [118 x i8], i64 }
%struct.IPSourceFilters = type { i32, i32, ptr, ptr }

@.str.43 = private unnamed_addr constant [28 x i8] c"Failed to set blocking mode\00", align 1
@.str.49 = private unnamed_addr constant [7 x i8] c"udp-rx\00", align 1
@.str.50 = private unnamed_addr constant [67 x i8] c"Circular buffer overrun. Surviving due to overrun_nonfatal option\0A\00", align 1
@.str.51 = private unnamed_addr constant [120 x i8] c"Circular buffer overrun. To avoid, increase fifo_size URL option. To survive in such case, use overrun_nonfatal option\0A\00", align 1

; Function Attrs: inlinehint nounwind uwtable
define internal i32 @ff_thread_setname(ptr noundef %0) #7 {
  %2 = alloca ptr, align 8
  %3 = alloca i32, align 4
  store ptr %0, ptr %2, align 8, !tbaa !9
  call void @llvm.lifetime.start.p0(i64 4, ptr %3) #9
  store i32 0, ptr %3, align 4, !tbaa !20
  %4 = load ptr, ptr %2, align 8, !tbaa !9
  %5 = call i32 (i32, ...) @prctl(i32 noundef 15, ptr noundef %4) #9
  %6 = sub nsw i32 0, %5
  store i32 %6, ptr %3, align 4, !tbaa !20
  %7 = load i32, ptr %3, align 4, !tbaa !20
  call void @llvm.lifetime.end.p0(i64 4, ptr %3) #9
  ret i32 %7
}

; Function Attrs: nounwind uwtable
define internal ptr @circular_buffer_task_rx(ptr noundef %0) #0 {
  %2 = alloca ptr, align 8
  %3 = alloca ptr, align 8
  %4 = alloca ptr, align 8
  %5 = alloca ptr, align 8
  %6 = alloca i32, align 4
  %7 = alloca i32, align 4
  %8 = alloca %struct.sockaddr_storage, align 8
  %9 = alloca i32, align 4
  %10 = alloca i32, align 4
  store ptr %0, ptr %3, align 8, !tbaa !82
  call void @llvm.lifetime.start.p0(i64 8, ptr %4) #9
  %11 = load ptr, ptr %3, align 8, !tbaa !82
  store ptr %11, ptr %4, align 8, !tbaa !4
  call void @llvm.lifetime.start.p0(i64 8, ptr %5) #9
  %12 = load ptr, ptr %4, align 8, !tbaa !4
  %13 = getelementptr inbounds nuw %struct.URLContext, ptr %12, i32 0, i32 2
  %14 = load ptr, ptr %13, align 8, !tbaa !11
  store ptr %14, ptr %5, align 8, !tbaa !18
  call void @llvm.lifetime.start.p0(i64 4, ptr %6) #9
  %15 = call i32 @ff_thread_setname(ptr noundef @.str.49)
  %16 = call i32 @pthread_setcancelstate(i32 noundef 1, ptr noundef %6)
  %17 = load ptr, ptr %5, align 8, !tbaa !18
  %18 = getelementptr inbounds nuw %struct.UDPContext, ptr %17, i32 0, i32 21
  %19 = call i32 @pthread_mutex_lock(ptr noundef %18) #9
  %20 = load ptr, ptr %5, align 8, !tbaa !18
  %21 = getelementptr inbounds nuw %struct.UDPContext, ptr %20, i32 0, i32 1
  %22 = load i32, ptr %21, align 8, !tbaa !30
  %23 = call i32 @ff_socket_nonblock(i32 noundef %22, i32 noundef 0)
  %24 = icmp slt i32 %23, 0
  br i1 %24, label %25, label %29

25:                                               ; preds = %1
  %26 = load ptr, ptr %4, align 8, !tbaa !4
  call void (ptr, i32, ptr, ...) @av_log(ptr noundef %26, i32 noundef 16, ptr noundef @.str.43)
  %27 = load ptr, ptr %5, align 8, !tbaa !18
  %28 = getelementptr inbounds nuw %struct.UDPContext, ptr %27, i32 0, i32 16
  store i32 -5, ptr %28, align 8, !tbaa !67
  br label %115

29:                                               ; preds = %1
  br label %30

30:                                               ; preds = %114, %112, %29
  br label %31

31:                                               ; preds = %30
  call void @llvm.lifetime.start.p0(i64 4, ptr %7) #9
  call void @llvm.lifetime.start.p0(i64 128, ptr %8) #9
  call void @llvm.lifetime.start.p0(i64 4, ptr %9) #9
  store i32 128, ptr %9, align 4, !tbaa !20
  %32 = load ptr, ptr %5, align 8, !tbaa !18
  %33 = getelementptr inbounds nuw %struct.UDPContext, ptr %32, i32 0, i32 21
  %34 = call i32 @pthread_mutex_unlock(ptr noundef %33) #9
  %35 = call i32 @pthread_setcancelstate(i32 noundef 0, ptr noundef %6)
  %36 = load ptr, ptr %5, align 8, !tbaa !18
  %37 = getelementptr inbounds nuw %struct.UDPContext, ptr %36, i32 0, i32 1
  %38 = load i32, ptr %37, align 8, !tbaa !30
  %39 = load ptr, ptr %5, align 8, !tbaa !18
  %40 = getelementptr inbounds nuw %struct.UDPContext, ptr %39, i32 0, i32 24
  %41 = getelementptr inbounds [65540 x i8], ptr %40, i64 0, i64 0
  %42 = getelementptr inbounds i8, ptr %41, i64 4
  %43 = call i64 @recvfrom(i32 noundef %38, ptr noundef %42, i64 noundef 65536, i32 noundef 0, ptr noundef %8, ptr noundef %9)
  %44 = trunc i64 %43 to i32
  store i32 %44, ptr %7, align 4, !tbaa !20
  %45 = call i32 @pthread_setcancelstate(i32 noundef 1, ptr noundef %6)
  %46 = load ptr, ptr %5, align 8, !tbaa !18
  %47 = getelementptr inbounds nuw %struct.UDPContext, ptr %46, i32 0, i32 21
  %48 = call i32 @pthread_mutex_lock(ptr noundef %47) #9
  %49 = load i32, ptr %7, align 4, !tbaa !20
  %50 = icmp slt i32 %49, 0
  br i1 %50, label %51, label %68

51:                                               ; preds = %31
  %52 = call ptr @__errno_location() #11
  %53 = load i32, ptr %52, align 4, !tbaa !20
  %54 = sub nsw i32 0, %53
  %55 = icmp ne i32 %54, -11
  br i1 %55, label %56, label %67

56:                                               ; preds = %51
  %57 = call ptr @__errno_location() #11
  %58 = load i32, ptr %57, align 4, !tbaa !20
  %59 = sub nsw i32 0, %58
  %60 = icmp ne i32 %59, -4
  br i1 %60, label %61, label %67

61:                                               ; preds = %56
  %62 = call ptr @__errno_location() #11
  %63 = load i32, ptr %62, align 4, !tbaa !20
  %64 = sub nsw i32 0, %63
  %65 = load ptr, ptr %5, align 8, !tbaa !18
  %66 = getelementptr inbounds nuw %struct.UDPContext, ptr %65, i32 0, i32 16
  store i32 %64, ptr %66, align 8, !tbaa !67
  store i32 2, ptr %10, align 4
  br label %112

67:                                               ; preds = %56, %51
  store i32 3, ptr %10, align 4
  br label %112

68:                                               ; preds = %31
  %69 = load ptr, ptr %5, align 8, !tbaa !18
  %70 = getelementptr inbounds nuw %struct.UDPContext, ptr %69, i32 0, i32 31
  %71 = call i32 @ff_ip_check_source_lists(ptr noundef %8, ptr noundef %70)
  %72 = icmp ne i32 %71, 0
  br i1 %72, label %73, label %74

73:                                               ; preds = %68
  store i32 3, ptr %10, align 4
  br label %112

74:                                               ; preds = %68
  %75 = load i32, ptr %7, align 4, !tbaa !20
  %76 = load ptr, ptr %5, align 8, !tbaa !18
  %77 = getelementptr inbounds nuw %struct.UDPContext, ptr %76, i32 0, i32 24
  %78 = getelementptr inbounds [65540 x i8], ptr %77, i64 0, i64 0
  store i32 %75, ptr %78, align 4, !tbaa !56
  %79 = load ptr, ptr %5, align 8, !tbaa !18
  %80 = getelementptr inbounds nuw %struct.UDPContext, ptr %79, i32 0, i32 15
  %81 = load ptr, ptr %80, align 8, !tbaa !65
  %82 = call i64 @av_fifo_can_write(ptr noundef %81)
  %83 = load i32, ptr %7, align 4, !tbaa !20
  %84 = add nsw i32 %83, 4
  %85 = sext i32 %84 to i64
  %86 = icmp ult i64 %82, %85
  br i1 %86, label %87, label %98

87:                                               ; preds = %74
  %88 = load ptr, ptr %5, align 8, !tbaa !18
  %89 = getelementptr inbounds nuw %struct.UDPContext, ptr %88, i32 0, i32 10
  %90 = load i32, ptr %89, align 4, !tbaa !44
  %91 = icmp ne i32 %90, 0
  br i1 %91, label %92, label %94

92:                                               ; preds = %87
  %93 = load ptr, ptr %4, align 8, !tbaa !4
  call void (ptr, i32, ptr, ...) @av_log(ptr noundef %93, i32 noundef 24, ptr noundef @.str.50)
  store i32 3, ptr %10, align 4
  br label %112

94:                                               ; preds = %87
  %95 = load ptr, ptr %4, align 8, !tbaa !4
  call void (ptr, i32, ptr, ...) @av_log(ptr noundef %95, i32 noundef 16, ptr noundef @.str.51)
  %96 = load ptr, ptr %5, align 8, !tbaa !18
  %97 = getelementptr inbounds nuw %struct.UDPContext, ptr %96, i32 0, i32 16
  store i32 -5, ptr %97, align 8, !tbaa !67
  store i32 2, ptr %10, align 4
  br label %112

98:                                               ; preds = %74
  %99 = load ptr, ptr %5, align 8, !tbaa !18
  %100 = getelementptr inbounds nuw %struct.UDPContext, ptr %99, i32 0, i32 15
  %101 = load ptr, ptr %100, align 8, !tbaa !65
  %102 = load ptr, ptr %5, align 8, !tbaa !18
  %103 = getelementptr inbounds nuw %struct.UDPContext, ptr %102, i32 0, i32 24
  %104 = getelementptr inbounds [65540 x i8], ptr %103, i64 0, i64 0
  %105 = load i32, ptr %7, align 4, !tbaa !20
  %106 = add nsw i32 %105, 4
  %107 = sext i32 %106 to i64
  %108 = call i32 @av_fifo_write(ptr noundef %101, ptr noundef %104, i64 noundef %107)
  %109 = load ptr, ptr %5, align 8, !tbaa !18
  %110 = getelementptr inbounds nuw %struct.UDPContext, ptr %109, i32 0, i32 22
  %111 = call i32 @pthread_cond_signal(ptr noundef %110) #9
  store i32 0, ptr %10, align 4
  br label %112

112:                                              ; preds = %94, %61, %98, %92, %73, %67
  call void @llvm.lifetime.end.p0(i64 4, ptr %9) #9
  call void @llvm.lifetime.end.p0(i64 128, ptr %8) #9
  call void @llvm.lifetime.end.p0(i64 4, ptr %7) #9
  %113 = load i32, ptr %10, align 4
  switch i32 %113, label %122 [
    i32 0, label %114
    i32 3, label %30
    i32 2, label %115
  ]

114:                                              ; preds = %112
  br label %30

115:                                              ; preds = %112, %25
  %116 = load ptr, ptr %5, align 8, !tbaa !18
  %117 = getelementptr inbounds nuw %struct.UDPContext, ptr %116, i32 0, i32 22
  %118 = call i32 @pthread_cond_signal(ptr noundef %117) #9
  %119 = load ptr, ptr %5, align 8, !tbaa !18
  %120 = getelementptr inbounds nuw %struct.UDPContext, ptr %119, i32 0, i32 21
  %121 = call i32 @pthread_mutex_unlock(ptr noundef %120) #9
  store ptr null, ptr %2, align 8
  store i32 1, ptr %10, align 4
  br label %122

122:                                              ; preds = %115, %112
  call void @llvm.lifetime.end.p0(i64 4, ptr %6) #9
  call void @llvm.lifetime.end.p0(i64 8, ptr %5) #9
  call void @llvm.lifetime.end.p0(i64 8, ptr %4) #9
  %123 = load ptr, ptr %2, align 8
  ret ptr %123
}