; Function Attrs: nounwind uwtable
define internal noalias noundef ptr @circular_buffer_task_rx(ptr noundef %0) #0 {
  %2 = alloca i32, align 4
  %3 = alloca %struct.sockaddr_storage, align 8
  %4 = alloca i32, align 4
  %5 = getelementptr inbounds nuw i8, ptr %0, i64 16
  %6 = load ptr, ptr %5, align 8, !tbaa !4
  call void @llvm.lifetime.start.p0(i64 4, ptr nonnull %2) #11
  %7 = tail call i32 (i32, ...) @prctl(i32 noundef 15, ptr noundef nonnull @.str.49) #11
  %8 = call i32 @pthread_setcancelstate(i32 noundef 1, ptr noundef nonnull %2) #11
  %9 = getelementptr inbounds nuw i8, ptr %6, i64 240
  %10 = call i32 @pthread_mutex_lock(ptr noundef nonnull %9) #11
  %11 = getelementptr inbounds nuw i8, ptr %6, i64 8
  %12 = load i32, ptr %11, align 8, !tbaa !30
  %13 = call i32 @ff_socket_nonblock(i32 noundef %12, i32 noundef 0) #11
  %14 = icmp slt i32 %13, 0
  br i1 %14, label %21, label %.preheader

.preheader:                                       ; preds = %1
  %15 = getelementptr inbounds nuw i8, ptr %6, i64 332
  %16 = getelementptr inbounds nuw i8, ptr %6, i64 336
  %17 = getelementptr inbounds nuw i8, ptr %6, i64 66040
  %18 = getelementptr inbounds nuw i8, ptr %6, i64 192
  %19 = getelementptr inbounds nuw i8, ptr %6, i64 280
  %20 = getelementptr inbounds nuw i8, ptr %6, i64 44
  br label %23

21:                                               ; preds = %1
  call void (ptr, i32, ptr, ...) @av_log(ptr noundef nonnull %0, i32 noundef 16, ptr noundef nonnull @.str.43) #11
  %22 = getelementptr inbounds nuw i8, ptr %6, i64 200
  store i32 -5, ptr %22, align 8, !tbaa !66
  br label %55

23:                                               ; preds = %.preheader, %54
  call void @llvm.lifetime.start.p0(i64 128, ptr nonnull %3) #11
  call void @llvm.lifetime.start.p0(i64 4, ptr nonnull %4) #11
  store i32 128, ptr %4, align 4, !tbaa !15
  %24 = call i32 @pthread_mutex_unlock(ptr noundef nonnull %9) #11
  %25 = call i32 @pthread_setcancelstate(i32 noundef 0, ptr noundef nonnull %2) #11
  %26 = load i32, ptr %11, align 8, !tbaa !30
  %27 = call i64 @recvfrom(i32 noundef %26, ptr noundef nonnull %16, i64 noundef 65536, i32 noundef 0, ptr noundef nonnull %3, ptr noundef nonnull %4) #11
  %28 = trunc i64 %27 to i32
  %29 = call i32 @pthread_setcancelstate(i32 noundef 1, ptr noundef nonnull %2) #11
  %30 = call i32 @pthread_mutex_lock(ptr noundef nonnull %9) #11
  %31 = icmp slt i32 %28, 0
  br i1 %31, label %32, label %37

32:                                               ; preds = %23
  %33 = tail call ptr @__errno_location() #13
  %34 = load i32, ptr %33, align 4, !tbaa !15
  switch i32 %34, label %35 [
    i32 11, label %54
    i32 4, label %54
  ]

35:                                               ; preds = %32
  %36 = sub nsw i32 0, %34
  br label %.thread

37:                                               ; preds = %23
  %38 = call i32 @ff_ip_check_source_lists(ptr noundef nonnull %3, ptr noundef nonnull %17) #11
  %.not = icmp eq i32 %38, 0
  br i1 %.not, label %39, label %54

39:                                               ; preds = %37
  store i32 %28, ptr %15, align 4, !tbaa !47
  %40 = load ptr, ptr %18, align 8, !tbaa !64
  %41 = call i64 @av_fifo_can_write(ptr noundef %40) #11
  %42 = add nuw nsw i64 %27, 4
  %43 = and i64 %42, 4294967295
  %44 = icmp ult i64 %41, %43
  br i1 %44, label %45, label %49

45:                                               ; preds = %39
  %46 = load i32, ptr %20, align 4, !tbaa !91
  %.not31 = icmp eq i32 %46, 0
  br i1 %.not31, label %48, label %47

47:                                               ; preds = %45
  call void (ptr, i32, ptr, ...) @av_log(ptr noundef %0, i32 noundef 24, ptr noundef nonnull @.str.50) #11
  br label %54

48:                                               ; preds = %45
  call void (ptr, i32, ptr, ...) @av_log(ptr noundef %0, i32 noundef 16, ptr noundef nonnull @.str.51) #11
  br label %.thread

49:                                               ; preds = %39
  %50 = load ptr, ptr %18, align 8, !tbaa !64
  %51 = call i32 @av_fifo_write(ptr noundef %50, ptr noundef nonnull %15, i64 noundef %43) #11
  %52 = call i32 @pthread_cond_signal(ptr noundef nonnull %19) #11
  br label %54

.thread:                                          ; preds = %35, %48
  %.sink = phi i32 [ %36, %35 ], [ -5, %48 ]
  %53 = getelementptr inbounds nuw i8, ptr %6, i64 200
  store i32 %.sink, ptr %53, align 8, !tbaa !66
  call void @llvm.lifetime.end.p0(i64 4, ptr nonnull %4) #11
  call void @llvm.lifetime.end.p0(i64 128, ptr nonnull %3) #11
  br label %55

54:                                               ; preds = %37, %32, %32, %49, %47
  call void @llvm.lifetime.end.p0(i64 4, ptr nonnull %4) #11
  call void @llvm.lifetime.end.p0(i64 128, ptr nonnull %3) #11
  br label %23

55:                                               ; preds = %.thread, %21
  %56 = getelementptr inbounds nuw i8, ptr %6, i64 280
  %57 = call i32 @pthread_cond_signal(ptr noundef nonnull %56) #11
  %58 = call i32 @pthread_mutex_unlock(ptr noundef nonnull %9) #11
  call void @llvm.lifetime.end.p0(i64 4, ptr nonnull %2) #11
  ret ptr null
}